; Function Attrs: nofree nounwind uwtable
define void @Wlc_MultBlastFileGen(i32 noundef %0, i32 noundef %1, i32 noundef %2) local_unnamed_addr #8 {
  %4 = tail call noalias ptr @fopen(ptr noundef nonnull @.str.57, ptr noundef nonnull @.str.58)
  %5 = tail call i64 @fwrite(ptr nonnull @.str.59, i64 25, i64 1, ptr %4)
  %.not = icmp eq i32 %2, 0
  %6 = select i1 %.not, ptr @.str.62, ptr @.str.61
  %7 = add i32 %0, -1
  %8 = tail call i32 (ptr, ptr, ...) @fprintf(ptr noundef %4, ptr noundef nonnull @.str.60, ptr noundef nonnull %6, i32 noundef %7) #23
  %9 = add nsw i32 %1, -1
  %10 = tail call i32 (ptr, ptr, ...) @fprintf(ptr noundef %4, ptr noundef nonnull @.str.63, ptr noundef nonnull %6, i32 noundef %9) #23
  %11 = add i32 %7, %1
  %12 = tail call i32 (ptr, ptr, ...) @fprintf(ptr noundef %4, ptr noundef nonnull @.str.64, ptr noundef nonnull %6, i32 noundef %11) #23
  %13 = tail call i64 @fwrite(ptr nonnull @.str.65, i64 18, i64 1, ptr %4)
  %14 = tail call i64 @fwrite(ptr nonnull @.str.66, i64 10, i64 1, ptr %4)
  %15 = tail call i32 @fclose(ptr noundef %4)
  ret void
}